; Function Attrs: mustprogress nofree norecurse nosync nounwind willreturn memory(argmem: readwrite) uwtable
define void @faiss_ParameterRange_values(ptr noundef readonly captures(none) %0, ptr noundef writeonly captures(none) initializes((0, 8)) %1, ptr noundef writeonly captures(none) initializes((0, 8)) %2) local_unnamed_addr #4 {
  %4 = getelementptr inbounds nuw i8, ptr %0, i64 32
  %5 = load ptr, ptr %4, align 8, !tbaa !11
  store ptr %5, ptr %1, align 8, !tbaa !14
  %6 = getelementptr inbounds nuw i8, ptr %0, i64 40
  %7 = load ptr, ptr %6, align 8, !tbaa !15
  %8 = ptrtoint ptr %7 to i64
  %9 = ptrtoint ptr %5 to i64
  %10 = sub i64 %8, %9
  %11 = ashr exact i64 %10, 3
  store i64 %11, ptr %2, align 8, !tbaa !16
  ret void
}